target datalayout = "e-m:e-p270:32:32-p271:32:32-p272:64:64-i64:64-i128:128-f80:128-n8:16:32:64-S128"
target triple = "x86_64-pc-linux-gnu"

%struct.WC_RNG = type { %struct.OS_Seed, ptr, ptr, i8 }
%struct.OS_Seed = type { i32 }
%struct.timespec = type { i64, i64 }

@err_prefix = internal constant [1 x i8] zeroinitializer, align 1
@bench_size = internal global i32 1048576, align 4
@devId = internal thread_local global i32 -2, align 4
@.str.5 = private unnamed_addr constant [19 x i8] c"InitRNG failed %d\0A\00", align 1
@numBlocks = internal global i32 5, align 4
@bench_plain = internal thread_local global ptr null, align 8
@.str.6 = private unnamed_addr constant [4 x i8] c"RNG\00", align 1
@.str.78 = private unnamed_addr constant [28 x i8] c"%s%s L%d error %d for \22%s\22\0A\00", align 1
@.str.79 = private unnamed_addr constant [125 x i8] c"generated/home/dtcxzyw/WorkSpace/Projects/compilers/llvm-opt-benchmark/bench/wolfssl/wolfssl/wolfcrypt/benchmark/benchmark.c\00", align 1
@.str.80 = private unnamed_addr constant [35 x i8] c"clock_gettime(CLOCK_REALTIME, &tv)\00", align 1
@stdout = external global ptr, align 8
@total_cycles = internal thread_local global i64 0, align 8

; Function Attrs: inlinehint nounwind uwtable
define internal i64 @get_intel_cycles() #3 {
  %1 = alloca i32, align 4
  %2 = alloca i32, align 4
  call void @llvm.lifetime.start.p0(i64 4, ptr %1) #12
  call void @llvm.lifetime.start.p0(i64 4, ptr %2) #12
  %3 = call { i32, i32 } asm sideeffect "cpuid\0A\09rdtsc", "={ax},={dx},{ax},~{ebx},~{ecx},~{dirflag},~{fpsr},~{flags}"(i32 0) #12, !srcloc !261
  %4 = extractvalue { i32, i32 } %3, 0
  %5 = extractvalue { i32, i32 } %3, 1
  store i32 %4, ptr %1, align 4, !tbaa !4
  store i32 %5, ptr %2, align 4, !tbaa !4
  %6 = load i32, ptr %1, align 4, !tbaa !4
  %7 = zext i32 %6 to i64
  %8 = load i32, ptr %2, align 4, !tbaa !4
  %9 = zext i32 %8 to i64
  %10 = shl i64 %9, 32
  %11 = or i64 %7, %10
  call void @llvm.lifetime.end.p0(i64 4, ptr %2) #12
  call void @llvm.lifetime.end.p0(i64 4, ptr %1) #12
  ret i64 %11
}

; Function Attrs: nounwind uwtable
define dso_local double @current_time(i32 noundef %0) #0 {
  %2 = alloca i32, align 4
  %3 = alloca %struct.timespec, align 8
  %4 = alloca i32, align 4
  store i32 %0, ptr %2, align 4, !tbaa !4
  call void @llvm.lifetime.start.p0(i64 16, ptr %3) #12
  br label %5

5:                                                ; preds = %1
  call void @llvm.lifetime.start.p0(i64 4, ptr %4) #12
  %6 = call i32 @clock_gettime(i32 noundef 0, ptr noundef %3) #12
  store i32 %6, ptr %4, align 4, !tbaa !4
  %7 = load i32, ptr %4, align 4, !tbaa !4
  %8 = icmp slt i32 %7, 0
  br i1 %8, label %9, label %15

9:                                                ; preds = %5
  %10 = call ptr @__errno_location() #14
  %11 = load i32, ptr %10, align 4, !tbaa !4
  %12 = call i32 (ptr, ...) @printf(ptr noundef @.str.78, ptr noundef @err_prefix, ptr noundef @.str.79, i32 noundef 14994, i32 noundef %11, ptr noundef @.str.80)
  %13 = load ptr, ptr @stdout, align 8, !tbaa !14
  %14 = call i32 @fflush(ptr noundef %13)
  call void @_exit(i32 noundef 1) #15
  unreachable

15:                                               ; preds = %5
  call void @llvm.lifetime.end.p0(i64 4, ptr %4) #12
  br label %16

16:                                               ; preds = %15
  br label %17

17:                                               ; preds = %16
  %18 = getelementptr inbounds nuw %struct.timespec, ptr %3, i32 0, i32 0
  %19 = load i64, ptr %18, align 8, !tbaa !241
  %20 = sitofp i64 %19 to double
  %21 = getelementptr inbounds nuw %struct.timespec, ptr %3, i32 0, i32 1
  %22 = load i64, ptr %21, align 8, !tbaa !243
  %23 = sitofp i64 %22 to double
  %24 = fdiv double %23, 1.000000e+09
  %25 = fadd double %20, %24
  call void @llvm.lifetime.end.p0(i64 16, ptr %3) #12
  ret double %25
}

; Function Attrs: inlinehint nounwind uwtable
define internal i32 @bench_stats_check(double noundef %0) #3 {
  %2 = alloca double, align 8
  %3 = alloca i32, align 4
  %4 = alloca double, align 8
  store double %0, ptr %2, align 8, !tbaa !20
  call void @llvm.lifetime.start.p0(i64 4, ptr %3) #12
  store i32 0, ptr %3, align 4, !tbaa !4
  call void @llvm.lifetime.start.p0(i64 8, ptr %4) #12
  store double 0.000000e+00, ptr %4, align 8, !tbaa !20
  %5 = call double @current_time(i32 noundef 0)
  store double %5, ptr %4, align 8, !tbaa !20
  %6 = load double, ptr %4, align 8, !tbaa !20
  %7 = load double, ptr %2, align 8, !tbaa !20
  %8 = fsub double %6, %7
  %9 = fcmp olt double %8, 1.000000e+00
  %10 = zext i1 %9 to i32
  store i32 %10, ptr %3, align 4, !tbaa !4
  %11 = load i32, ptr %3, align 4, !tbaa !4
  call void @llvm.lifetime.end.p0(i64 8, ptr %4) #12
  call void @llvm.lifetime.end.p0(i64 4, ptr %3) #12
  ret i32 %11
}

; Function Attrs: inlinehint nounwind uwtable
define internal void @bench_stats_start(ptr noundef %0, ptr noundef %1) #3 {
  %3 = alloca ptr, align 8
  %4 = alloca ptr, align 8
  store ptr %0, ptr %3, align 8, !tbaa !23
  store ptr %1, ptr %4, align 8, !tbaa !25
  %5 = load ptr, ptr %3, align 8, !tbaa !23
  store i32 0, ptr %5, align 4, !tbaa !4
  %6 = call double @current_time(i32 noundef 1)
  %7 = load ptr, ptr %4, align 8, !tbaa !25
  store double %6, ptr %7, align 8, !tbaa !20
  %8 = call i64 @get_intel_cycles()
  %9 = call align 8 ptr @llvm.threadlocal.address.p0(ptr align 8 @total_cycles)
  store i64 %8, ptr %9, align 8, !tbaa !10
  ret void
}

; Function Attrs: nounwind uwtable
define dso_local void @bench_rng() #0 {
  %1 = alloca i32, align 4
  %2 = alloca i32, align 4
  %3 = alloca i32, align 4
  %4 = alloca double, align 8
  %5 = alloca i64, align 8
  %6 = alloca i64, align 8
  %7 = alloca i64, align 8
  %8 = alloca %struct.WC_RNG, align 8
  %9 = alloca i32, align 4
  call void @llvm.lifetime.start.p0(i64 4, ptr %1) #12
  call void @llvm.lifetime.start.p0(i64 4, ptr %2) #12
  call void @llvm.lifetime.start.p0(i64 4, ptr %3) #12
  call void @llvm.lifetime.start.p0(i64 8, ptr %4) #12
  call void @llvm.lifetime.start.p0(i64 8, ptr %5) #12
  call void @llvm.lifetime.start.p0(i64 8, ptr %6) #12
  call void @llvm.lifetime.start.p0(i64 8, ptr %7) #12
  call void @llvm.lifetime.start.p0(i64 32, ptr %8) #12
  %10 = call align 4 ptr @llvm.threadlocal.address.p0(ptr align 4 @devId)
  %11 = load i32, ptr %10, align 4, !tbaa !4
  %12 = call i32 @wc_InitRng_ex(ptr noundef %8, ptr noundef null, i32 noundef %11)
  store i32 %12, ptr %1, align 4, !tbaa !4
  %13 = load i32, ptr %1, align 4, !tbaa !4
  %14 = icmp slt i32 %13, 0
  br i1 %14, label %15, label %18

15:                                               ; preds = %0
  %16 = load i32, ptr %1, align 4, !tbaa !4
  %17 = call i32 (ptr, ...) @printf(ptr noundef @.str.5, i32 noundef %16)
  store i32 1, ptr %9, align 4
  br label %75

18:                                               ; preds = %0
  call void @bench_stats_start(ptr noundef %3, ptr noundef %4)
  br label %19

19:                                               ; preds = %64, %18
  store i32 0, ptr %2, align 4, !tbaa !4
  br label %20

20:                                               ; preds = %57, %19
  %21 = load i32, ptr %2, align 4, !tbaa !4
  %22 = load i32, ptr @numBlocks, align 4, !tbaa !4
  %23 = icmp slt i32 %21, %22
  br i1 %23, label %24, label %60

24:                                               ; preds = %20
  store i64 0, ptr %5, align 8, !tbaa !10
  %25 = load i32, ptr @bench_size, align 4, !tbaa !4
  %26 = sext i32 %25 to i64
  store i64 %26, ptr %7, align 8, !tbaa !10
  br label %27

27:                                               ; preds = %46, %24
  %28 = load i64, ptr %7, align 8, !tbaa !10
  %29 = icmp sgt i64 %28, 0
  br i1 %29, label %30, label %53

30:                                               ; preds = %27
  %31 = load i64, ptr %7, align 8, !tbaa !10
  store i64 %31, ptr %6, align 8, !tbaa !10
  %32 = load i64, ptr %6, align 8, !tbaa !10
  %33 = icmp sgt i64 %32, 65536
  br i1 %33, label %34, label %35

34:                                               ; preds = %30
  store i64 65536, ptr %6, align 8, !tbaa !10
  br label %35

35:                                               ; preds = %34, %30
  %36 = call align 8 ptr @llvm.threadlocal.address.p0(ptr align 8 @bench_plain)
  %37 = load ptr, ptr %36, align 8, !tbaa !12
  %38 = load i64, ptr %5, align 8, !tbaa !10
  %39 = getelementptr inbounds i8, ptr %37, i64 %38
  %40 = load i64, ptr %6, align 8, !tbaa !10
  %41 = trunc i64 %40 to i32
  %42 = call i32 @wc_RNG_GenerateBlock(ptr noundef %8, ptr noundef %39, i32 noundef %41)
  store i32 %42, ptr %1, align 4, !tbaa !4
  %43 = load i32, ptr %1, align 4, !tbaa !4
  %44 = icmp slt i32 %43, 0
  br i1 %44, label %45, label %46

45:                                               ; preds = %35
  br label %69

46:                                               ; preds = %35
  %47 = load i64, ptr %6, align 8, !tbaa !10
  %48 = load i64, ptr %7, align 8, !tbaa !10
  %49 = sub nsw i64 %48, %47
  store i64 %49, ptr %7, align 8, !tbaa !10
  %50 = load i64, ptr %6, align 8, !tbaa !10
  %51 = load i64, ptr %5, align 8, !tbaa !10
  %52 = add nsw i64 %51, %50
  store i64 %52, ptr %5, align 8, !tbaa !10
  br label %27, !llvm.loop !18

53:                                               ; preds = %27
  br label %54

54:                                               ; preds = %53
  br label %55

55:                                               ; preds = %54
  br label %56

56:                                               ; preds = %55
  br label %57

57:                                               ; preds = %56
  %58 = load i32, ptr %2, align 4, !tbaa !4
  %59 = add nsw i32 %58, 1
  store i32 %59, ptr %2, align 4, !tbaa !4
  br label %20, !llvm.loop !19

60:                                               ; preds = %20
  %61 = load i32, ptr %2, align 4, !tbaa !4
  %62 = load i32, ptr %3, align 4, !tbaa !4
  %63 = add nsw i32 %62, %61
  store i32 %63, ptr %3, align 4, !tbaa !4
  br label %64

64:                                               ; preds = %60
  %65 = load double, ptr %4, align 8, !tbaa !20
  %66 = call i32 @bench_stats_check(double noundef %65)
  %67 = icmp ne i32 %66, 0
  br i1 %67, label %19, label %68, !llvm.loop !22

68:                                               ; preds = %64
  br label %69

69:                                               ; preds = %68, %45
  %70 = load i32, ptr %3, align 4, !tbaa !4
  %71 = load i32, ptr @bench_size, align 4, !tbaa !4
  %72 = load double, ptr %4, align 8, !tbaa !20
  %73 = load i32, ptr %1, align 4, !tbaa !4
  call void @bench_stats_sym_finish(ptr noundef @.str.6, i32 noundef 0, i32 noundef %70, i32 noundef %71, double noundef %72, i32 noundef %73)
  %74 = call i32 @wc_FreeRng(ptr noundef %8)
  store i32 0, ptr %9, align 4
  br label %75

75:                                               ; preds = %69, %15
  call void @llvm.lifetime.end.p0(i64 32, ptr %8) #12
  call void @llvm.lifetime.end.p0(i64 8, ptr %7) #12
  call void @llvm.lifetime.end.p0(i64 8, ptr %6) #12
  call void @llvm.lifetime.end.p0(i64 8, ptr %5) #12
  call void @llvm.lifetime.end.p0(i64 8, ptr %4) #12
  call void @llvm.lifetime.end.p0(i64 4, ptr %3) #12
  call void @llvm.lifetime.end.p0(i64 4, ptr %2) #12
  call void @llvm.lifetime.end.p0(i64 4, ptr %1) #12
  %76 = load i32, ptr %9, align 4
  switch i32 %76, label %78 [
    i32 0, label %77
    i32 1, label %77
  ]

77:                                               ; preds = %75, %75
  ret void

78:                                               ; preds = %75
  unreachable
}