; Function Attrs: nounwind uwtable
define dso_local void @bench_rng() local_unnamed_addr #0 {
  %1 = alloca %struct.timespec, align 8
  %2 = alloca %struct.timespec, align 8
  %3 = alloca %struct.WC_RNG, align 8
  call void @llvm.lifetime.start.p0(i64 32, ptr nonnull %3) #16
  %4 = call i32 @wc_InitRng_ex(ptr noundef nonnull %3, ptr noundef null, i32 noundef -2) #16
  %5 = icmp slt i32 %4, 0
  br i1 %5, label %6, label %8

6:                                                ; preds = %0
  %7 = call i32 (ptr, ...) @printf(ptr noundef nonnull dereferenceable(1) @.str.5, i32 noundef %4)
  br label %73

8:                                                ; preds = %0
  call void @llvm.lifetime.start.p0(i64 16, ptr nonnull %2) #16
  %9 = call i32 @clock_gettime(i32 noundef 0, ptr noundef nonnull %2) #16
  %10 = icmp slt i32 %9, 0
  br i1 %10, label %11, label %bench_stats_start.exit

11:                                               ; preds = %8
  %12 = tail call ptr @__errno_location() #17
  %13 = load i32, ptr %12, align 4, !tbaa !4
  %14 = call i32 (ptr, ...) @printf(ptr noundef nonnull dereferenceable(1) @.str.78, ptr noundef nonnull @.str.113, ptr noundef nonnull @.str.79, i32 noundef 14994, i32 noundef %13, ptr noundef nonnull @.str.80)
  %15 = load ptr, ptr @stdout, align 8, !tbaa !14
  %16 = call i32 @fflush(ptr noundef %15)
  call void @_exit(i32 noundef 1) #18
  unreachable

bench_stats_start.exit:                           ; preds = %8
  %17 = load i64, ptr %2, align 8, !tbaa !16
  %18 = sitofp i64 %17 to double
  %19 = getelementptr inbounds nuw i8, ptr %2, i64 8
  %20 = load i64, ptr %19, align 8, !tbaa !19
  %21 = sitofp i64 %20 to double
  %22 = fdiv double %21, 1.000000e+09
  %23 = fadd double %22, %18
  call void @llvm.lifetime.end.p0(i64 16, ptr nonnull %2) #16
  %24 = call { i32, i32 } asm sideeffect "cpuid\0A\09rdtsc", "={ax},={dx},{ax},~{ebx},~{ecx},~{dirflag},~{fpsr},~{flags}"(i32 0) #16, !srcloc !20
  %25 = extractvalue { i32, i32 } %24, 0
  %26 = extractvalue { i32, i32 } %24, 1
  %27 = zext i32 %25 to i64
  %28 = zext i32 %26 to i64
  %29 = shl nuw i64 %28, 32
  %30 = or disjoint i64 %29, %27
  %31 = call align 8 ptr @llvm.threadlocal.address.p0(ptr align 8 @total_cycles)
  store i64 %30, ptr %31, align 8, !tbaa !21
  %32 = call align 8 ptr @llvm.threadlocal.address.p0(ptr align 8 @bench_plain)
  %33 = getelementptr inbounds nuw i8, ptr %1, i64 8
  br label %34

34:                                               ; preds = %bench_stats_check.exit, %bench_stats_start.exit
  %.025 = phi i32 [ 0, %bench_stats_start.exit ], [ %62, %bench_stats_check.exit ]
  %.018 = phi i32 [ %4, %bench_stats_start.exit ], [ %.1.lcssa, %bench_stats_check.exit ]
  %35 = load i32, ptr @numBlocks, align 4, !tbaa !4
  %36 = icmp sgt i32 %35, 0
  br i1 %36, label %.lr.ph40, label %._crit_edge41

.lr.ph40:                                         ; preds = %34, %._crit_edge
  %37 = phi i32 [ %51, %._crit_edge ], [ %35, %34 ]
  %.01738 = phi i32 [ %52, %._crit_edge ], [ 0, %34 ]
  %.137 = phi i32 [ %.2.lcssa, %._crit_edge ], [ %.018, %34 ]
  %38 = load i32, ptr @bench_size, align 4, !tbaa !4
  %39 = icmp sgt i32 %38, 0
  br i1 %39, label %.lr.ph.preheader, label %._crit_edge

.lr.ph.preheader:                                 ; preds = %.lr.ph40
  %40 = zext nneg i32 %38 to i64
  br label %.lr.ph

.lr.ph:                                           ; preds = %.lr.ph.preheader, %47
  %.036 = phi i64 [ %48, %47 ], [ %40, %.lr.ph.preheader ]
  %.01635 = phi i64 [ %49, %47 ], [ 0, %.lr.ph.preheader ]
  %41 = call i64 @llvm.umin.i64(i64 %.036, i64 65536)
  %42 = load ptr, ptr %32, align 8, !tbaa !8
  %43 = getelementptr inbounds nuw i8, ptr %42, i64 %.01635
  %44 = trunc nuw nsw i64 %41 to i32
  %45 = call i32 @wc_RNG_GenerateBlock(ptr noundef nonnull %3, ptr noundef %43, i32 noundef %44) #16
  %46 = icmp slt i32 %45, 0
  br i1 %46, label %.loopexit, label %47

47:                                               ; preds = %.lr.ph
  %48 = sub nsw i64 %.036, %41
  %49 = add nuw nsw i64 %41, %.01635
  %50 = icmp sgt i64 %48, 0
  br i1 %50, label %.lr.ph, label %._crit_edge.loopexit, !llvm.loop !22

._crit_edge.loopexit:                             ; preds = %47
  %.pre = load i32, ptr @numBlocks, align 4, !tbaa !4
  br label %._crit_edge

._crit_edge:                                      ; preds = %._crit_edge.loopexit, %.lr.ph40
  %51 = phi i32 [ %37, %.lr.ph40 ], [ %.pre, %._crit_edge.loopexit ]
  %.2.lcssa = phi i32 [ %.137, %.lr.ph40 ], [ %45, %._crit_edge.loopexit ]
  %52 = add nuw nsw i32 %.01738, 1
  %53 = icmp slt i32 %52, %51
  br i1 %53, label %.lr.ph40, label %._crit_edge41, !llvm.loop !23

._crit_edge41:                                    ; preds = %._crit_edge, %34
  %.1.lcssa = phi i32 [ %.018, %34 ], [ %.2.lcssa, %._crit_edge ]
  %.017.lcssa = phi i32 [ 0, %34 ], [ %52, %._crit_edge ]
  call void @llvm.lifetime.start.p0(i64 16, ptr nonnull %1) #16
  %54 = call i32 @clock_gettime(i32 noundef 0, ptr noundef nonnull %1) #16
  %55 = icmp slt i32 %54, 0
  br i1 %55, label %56, label %bench_stats_check.exit

56:                                               ; preds = %._crit_edge41
  %57 = tail call ptr @__errno_location() #17
  %58 = load i32, ptr %57, align 4, !tbaa !4
  %59 = call i32 (ptr, ...) @printf(ptr noundef nonnull dereferenceable(1) @.str.78, ptr noundef nonnull @.str.113, ptr noundef nonnull @.str.79, i32 noundef 14994, i32 noundef %58, ptr noundef nonnull @.str.80)
  %60 = load ptr, ptr @stdout, align 8, !tbaa !14
  %61 = call i32 @fflush(ptr noundef %60)
  call void @_exit(i32 noundef 1) #18
  unreachable

bench_stats_check.exit:                           ; preds = %._crit_edge41
  %62 = add nuw nsw i32 %.017.lcssa, %.025
  %63 = load i64, ptr %1, align 8, !tbaa !16
  %64 = sitofp i64 %63 to double
  %65 = load i64, ptr %33, align 8, !tbaa !19
  %66 = sitofp i64 %65 to double
  %67 = fdiv double %66, 1.000000e+09
  %68 = fadd double %67, %64
  call void @llvm.lifetime.end.p0(i64 16, ptr nonnull %1) #16
  %69 = fsub double %68, %23
  %70 = fcmp uge double %69, 1.000000e+00
  br i1 %70, label %.loopexit, label %34, !llvm.loop !24

.loopexit:                                        ; preds = %bench_stats_check.exit, %.lr.ph
  %.126 = phi i32 [ %.025, %.lr.ph ], [ %62, %bench_stats_check.exit ]
  %.3 = phi i32 [ %45, %.lr.ph ], [ %.1.lcssa, %bench_stats_check.exit ]
  %71 = load i32, ptr @bench_size, align 4, !tbaa !4
  call fastcc void @bench_stats_sym_finish(ptr noundef nonnull @.str.6, i32 noundef %.126, i32 noundef %71, double noundef %23, i32 noundef %.3)
  %72 = call i32 @wc_FreeRng(ptr noundef nonnull %3) #16
  br label %73

73:                                               ; preds = %.loopexit, %6
  call void @llvm.lifetime.end.p0(i64 32, ptr nonnull %3) #16
  ret void
}